Certificate:
    Data:
        Version: 1 (0x0)
        Serial Number: 4660 (0x1234)
        Signature Algorithm: dsa_with_SHA256
        Issuer: C=US, ST=Washington, L=Seattle, O=AACT, OU=NA, CN=James/emailAddress=james00090@gmail.com
        Validity
            Not Before: May 21 18:49:45 2020 GMT
            Not After : May 21 18:49:45 2021 GMT
        Subject: C=US, ST=Washington, O=AACT, OU=NA, CN=James/emailAddress=james00090@gmail.com
        Subject Public Key Info:
            Public Key Algorithm: dsaEncryption
                pub: 
                    1a:8e:af:a0:be:01:a9:3b:76:cd:30:63:13:42:34:
                    50:a3:8d:9a:36:ca:d8:88:5e:a6:9e:bc:1c:a7:da:
                    68:7b:31:9b:d4:d0:5d:0d:e3:a5:64:86:2e:6e:10:
                    c7:69:69:35:67:a2:b5:cf:7d:ef:e5:c3:d3:44:f8:
                    14:0b:68:8c:c2:f3:7e:5d:3d:d3:41:0b:2c:e3:86:
                    a9:27:b9:5f:41:39:12:11:86:a0:c6:60:6f:35:04:
                    78:f0:6d:98:71:ef:56:1c:66:c7:64:fb:d6:71:a9:
                    b8:a1:b5:c4:75:12:98:1f:11:74:f0:04:e2:b2:8f:
                    38:b9:c8:a1:72:db:43:e2:1d:3e:e4:15:6b:94:b4:
                    12:1b:cd:ec:e8:8c:34:86:81:6b:ae:09:3e:51:af:
                    f0:d6:25:83:1f:f7:b4:7f:b9:da:d8:d0:4f:00:45:
                    87:93:17:cc:af:ac:b8:f7:25:61:13:68:03:f1:31:
                    17:ed:d8:be:15:16:98:a0:19:b6:df:9c:08:4a:8e:
                    ed:78:e4:e4:2e:ba:b2:bf:66:8f:34:c2:be:7b:58:
                    3f:98:16:05:2f:ee:37:e4:04:74:a9:74:0a:f7:4e:
                    2b:f3:ca:46:22:d5:d2:91:67:92:2d:37:e8:07:f2:
                    0e:ce:c2:81:05:36:91:c6:89:02:8b:48:37:40:94:
                    dd:cf:89:db:90:34:6a:e5:e2:d1:dd:c2:1f:fd:73:
                    db:44:73:02:da:ef:4c:3f:33:8c:69:d3:c3:47:39:
                    67:a1:38:89:ca:cd:07:77:1f:f0:69:4d:bc:d7:89:
                    75:d3:83:cd:0e:d2:e9:e1:ba:81:30:87:9b:62:b6:
                    e1:6d:d8:f1:f5:bd:17:e9:fe:00:e0:30:fa:ef:5e:
                    d4:93:68:e9:6b:df:1e:ae:c9:67:a9:97:a5:b7:dc:
                    69:2b:eb:f9:a3:67:c5:09:a0:ae:4a:b8:02:d2:9f:
                    f1:cc:15:d4:e2:cb:d6:21:5e:8b:07:3b:bd:ac:97:
                    6e:82:89:c3:c7:80:2e:1b:aa:31:c5:1f:ce:96:b9:
                    ad:66:f5:04:df:0f:9a:06:11:9d:b7:27:f5:ed:6b:
                    12:86:64:45:84:38:5b:04:4c:01:5c:86:42:50:f9:
                    d6:83:2e:7a:a7:c0:01:60:2c:90:8f:cf:19:e1:35:
                    7d:04:64:19:f0:be:32:8a:14:e9:59:23:bd:9f:4f:
                    f3:9f:f2:12:cd:50:0e:ed:95:d7:52:0a:f8:5d:f1:
                    d2:85:05:3a:35:bd:7c:34:90:b0:62:6f:e3:d6:42:
                    d7:e2:0f:b6:51:c7:6e:54:67:85:0b:9e:bb:29:4a:
                    41:3a:93:b2:5c:d8:21:6a:7e:6c:4a:4c:20:70:a4:
                    70:7c
                P:   
                    00:ba:af:31:6f:34:d8:60:72:82:48:e4:cf:17:3a:
                    d5:9f:22:2b:bb:fb:4e:a2:2d:be:47:a0:8e:cd:7e:
                    34:32:ca:60:d3:8c:06:55:de:33:b1:49:d8:76:db:
                    bb:36:67:4e:3b:40:54:82:19:a6:6d:6d:86:13:27:
                    8c:9b:b7:d3:93:91:86:5f:71:bb:90:89:de:ca:4f:
                    2e:92:0f:82:e9:a9:7b:bb:11:3e:6b:5d:3f:ef:fe:
                    b7:8b:62:80:cd:77:36:a7:10:bd:24:8a:16:bd:48:
                    76:ee:18:0a:af:60:1f:76:c4:6b:23:ef:a3:99:de:
                    8c:64:c1:9d:90:3c:85:dd:47:9a:81:ec:99:c7:03:
                    1f:16:11:54:36:93:60:f3:17:79:40:ba:3f:d8:44:
                    23:2b:9d:1d:4e:20:c3:bf:37:27:05:7f:19:0f:14:
                    d3:d1:01:e2:72:a0:04:9e:2d:44:25:6c:60:78:82:
                    38:3d:f8:63:55:bf:b4:aa:30:2a:3e:d8:ad:69:3b:
                    da:67:3e:9b:aa:f4:1d:1c:16:1a:30:a3:39:52:92:
                    b4:0d:95:3f:c5:e7:eb:fb:5e:3f:0d:01:f1:62:51:
                    42:4c:e8:18:03:bb:75:31:2e:97:c6:08:63:eb:4c:
                    fa:61:cb:3c:27:73:0f:dc:aa:8e:40:83:e8:eb:9f:
                    6b:75:4c:2f:01:7e:b1:89:72:db:b6:6d:e3:e7:2e:
                    03:f1:f4:2a:95:39:70:ea:e8:55:2c:4c:1e:5a:98:
                    19:69:62:03:f9:a3:0d:73:70:69:e1:93:18:42:38:
                    75:a1:24:a8:ae:31:fb:4b:08:a2:f7:0b:53:5e:c3:
                    9b:d3:7a:63:62:ea:9e:b7:61:fa:33:b6:75:b3:01:
                    e3:c9:21:01:a7:51:4a:5e:c2:22:8a:18:f6:73:26:
                    8f:65:17:0e:04:cd:b4:75:f6:10:0e:60:be:94:e6:
                    1a:a6:8a:9c:6d:68:08:ef:a9:9a:57:86:9b:d3:7b:
                    9e:2e:10:ce:d2:f6:14:46:72:f8:9a:d7:e7:7b:b5:
                    84:e3:28:24:d7:25:e3:7c:87:b7:a1:01:35:fd:7d:
                    9e:be:ac:1c:e1:3c:50:4d:ea:98:ba:5f:06:20:bf:
                    08:f9:38:28:e7:c8:65:62:b4:ef:a3:fc:2b:54:f4:
                    0b:eb:16:14:3a:ac:9d:e5:af:cd:f8:a7:f7:0b:36:
                    d2:28:e0:bf:4f:e2:ec:87:64:91:d8:9e:da:d9:d1:
                    40:9c:48:1e:47:5b:9f:06:4e:e4:3d:67:c3:71:70:
                    42:dd:8e:4a:ae:b5:c8:47:da:80:f1:15:22:67:77:
                    f9:c8:af:6b:52:28:2c:dd:50:d5:9f:d4:d2:1f:6b:
                    5a:a4:eb
                Q:   
                    00:f8:26:c5:05:d2:e6:b1:dc:6c:1d:ab:cb:58:ef:
                    8e:1c:13:fc:f6:91:d9:22:67:c1:d9:e0:95:28:c5:
                    1d:16:31
                G:   
                    02:81:0b:6e:e1:9c:f9:ac:49:b1:b4:6e:08:9c:e1:
                    d0:85:9b:4f:27:41:1a:c8:84:e9:ae:c8:3a:72:04:
                    6f:e7:2e:71:92:86:57:50:ac:4e:22:6c:6e:14:34:
                    11:06:ea:65:cf:6c:55:16:0d:b9:1e:82:1b:7c:ec:
                    46:d8:29:28:7d:4e:dc:55:95:e7:cf:03:2e:3b:56:
                    09:69:4c:55:a4:3f:23:f7:d6:ce:67:89:2e:95:bf:
                    0b:0e:33:04:de:59:60:a4:c2:d7:14:77:59:41:cd:
                    6b:4e:15:33:20:54:28:4d:9b:c2:37:45:ec:7b:2c:
                    36:4b:f8:eb:87:3a:0c:f0:07:fa:76:61:d1:7f:2b:
                    aa:71:1d:18:42:75:15:f1:1c:00:00:6e:be:10:b0:
                    59:05:45:68:61:02:9c:a6:22:3e:32:83:2a:c3:87:
                    85:cf:9c:ee:57:f2:ee:27:79:4b:5f:20:6b:66:e2:
                    28:b0:0a:57:81:54:cf:a2:f7:05:a7:e8:ed:51:51:
                    3a:0f:d3:3e:ac:19:82:d8:74:d0:b8:2d:9d:61:f0:
                    94:5b:bf:b5:d3:98:1b:34:9e:21:5d:c0:14:01:43:
                    3e:4d:56:4d:f9:a7:5f:ab:2c:e4:59:5f:b6:2e:16:
                    34:7f:9f:b4:54:6d:3a:0d:ec:72:3e:b1:02:af:c9:
                    0d:1d:90:79:8a:ad:ef:63:da:17:09:22:f3:9f:da:
                    a5:6f:15:12:26:a7:a9:96:5c:78:1e:ca:8f:f3:56:
                    4b:3c:07:26:f5:b7:9d:05:0e:42:a1:b0:68:73:89:
                    e6:f3:43:fc:25:f9:a9:c2:21:a4:80:23:00:a0:16:
                    25:39:10:6d:08:bd:b7:43:44:8f:be:41:bb:4e:6c:
                    ee:59:a6:18:d7:7b:6c:ff:23:cd:c8:01:56:b2:2d:
                    8b:b4:d6:2b:4e:3e:d3:0c:48:d9:5d:86:30:e3:99:
                    a3:ca:78:7d:f5:d0:2a:21:f9:3f:7a:aa:a0:02:04:
                    79:b3:9e:07:e7:c3:d1:d1:c9:cb:11:0d:8d:98:b9:
                    76:65:4d:8e:52:19:dd:a6:6c:ef:3e:cc:60:52:09:
                    b3:e1:d9:fb:ec:ce:df:3b:2b:b7:86:36:ec:f5:8b:
                    2e:76:cb:f8:cf:0f:2d:c4:b4:25:1a:c6:15:3d:94:
                    46:37:4f:65:ea:5a:0a:0e:f5:ae:67:af:ca:a0:ba:
                    cc:cb:20:71:ed:0a:b0:ae:eb:c6:c2:42:f8:fa:81:
                    5f:33:45:a8:e6:ee:86:b0:c7:9f:d9:cb:39:79:7c:
                    aa:d5:fa:0d:97:7c:65:d7:09:5d:47:fd:3d:43:03:
                    5a:56:ae:88:f1:e5:02:46:f2:dd:59:eb:64:51:9e:
                    1b:eb
    Signature Algorithm: dsa_with_SHA256
         r:   
             00:98:24:dd:3b:29:ca:29:a1:9d:dc:a9:fd:9a:83:
             f9:80:70:00:e3:0a:cb:7c:10:60:1f:ef:b8:72:da:
             fa:eb:ad
         s:   
             00:ac:4d:63:b5:98:1f:2e:83:b6:72:a6:af:31:42:
             74:2d:f0:fa:57:2a:c9:00:78:e1:ef:78:5c:22:51:
             36:dd:2c
-----BEGIN CERTIFICATE-----
MIIH1DCCB3gCAhI0MAsGCWCGSAFlAwQDAjCBhTELMAkGA1UEBhMCVVMxEzARBgNV
BAgMCldhc2hpbmd0b24xEDAOBgNVBAcMB1NlYXR0bGUxDTALBgNVBAoMBEFBQ1Qx
CzAJBgNVBAsMAk5BMQ4wDAYDVQQDDAVKYW1lczEjMCEGCSqGSIb3DQEJARYUamFt
ZXMwMDA5MEBnbWFpbC5jb20wHhcNMjAwNTIxMTg0OTQ1WhcNMjEwNTIxMTg0OTQ1
WjBzMQswCQYDVQQGEwJVUzETMBEGA1UECAwKV2FzaGluZ3RvbjENMAsGA1UECgwE
QUFDVDELMAkGA1UECwwCTkExDjAMBgNVBAMMBUphbWVzMSMwIQYJKoZIhvcNAQkB
FhRqYW1lczAwMDkwQGdtYWlsLmNvbTCCBkYwggQ5BgcqhkjOOAQBMIIELAKCAgEA
uq8xbzTYYHKCSOTPFzrVnyIru/tOoi2+R6COzX40Mspg04wGVd4zsUnYdtu7NmdO
O0BUghmmbW2GEyeMm7fTk5GGX3G7kIneyk8ukg+C6al7uxE+a10/7/63i2KAzXc2
pxC9JIoWvUh27hgKr2AfdsRrI++jmd6MZMGdkDyF3UeageyZxwMfFhFUNpNg8xd5
QLo/2EQjK50dTiDDvzcnBX8ZDxTT0QHicqAEni1EJWxgeII4PfhjVb+0qjAqPtit
aTvaZz6bqvQdHBYaMKM5UpK0DZU/xefr+14/DQHxYlFCTOgYA7t1MS6Xxghj60z6
Ycs8J3MP3KqOQIPo659rdUwvAX6xiXLbtm3j5y4D8fQqlTlw6uhVLEweWpgZaWID
+aMNc3Bp4ZMYQjh1oSSorjH7Swii9wtTXsOb03pjYuqet2H6M7Z1swHjySEBp1FK
XsIiihj2cyaPZRcOBM20dfYQDmC+lOYapoqcbWgI76maV4ab03ueLhDO0vYURnL4
mtfne7WE4ygk1yXjfIe3oQE1/X2evqwc4TxQTeqYul8GIL8I+Tgo58hlYrTvo/wr
VPQL6xYUOqyd5a/N+Kf3CzbSKOC/T+Lsh2SR2J7a2dFAnEgeR1ufBk7kPWfDcXBC
3Y5KrrXIR9qA8RUiZ3f5yK9rUigs3VDVn9TSH2tapOsCIQD4JsUF0uax3Gwdq8tY
744cE/z2kdkiZ8HZ4JUoxR0WMQKCAgACgQtu4Zz5rEmxtG4InOHQhZtPJ0EayITp
rsg6cgRv5y5xkoZXUKxOImxuFDQRBuplz2xVFg25HoIbfOxG2CkofU7cVZXnzwMu
O1YJaUxVpD8j99bOZ4kulb8LDjME3llgpMLXFHdZQc1rThUzIFQoTZvCN0Xseyw2
S/jrhzoM8Af6dmHRfyuqcR0YQnUV8RwAAG6+ELBZBUVoYQKcpiI+MoMqw4eFz5zu
V/LuJ3lLXyBrZuIosApXgVTPovcFp+jtUVE6D9M+rBmC2HTQuC2dYfCUW7+105gb
NJ4hXcAUAUM+TVZN+adfqyzkWV+2LhY0f5+0VG06DexyPrECr8kNHZB5iq3vY9oX
CSLzn9qlbxUSJqepllx4HsqP81ZLPAcm9bedBQ5CobBoc4nm80P8JfmpwiGkgCMA
oBYlORBtCL23Q0SPvkG7TmzuWaYY13ts/yPNyAFWsi2LtNYrTj7TDEjZXYYw45mj
ynh99dAqIfk/eqqgAgR5s54H58PR0cnLEQ2NmLl2ZU2OUhndpmzvPsxgUgmz4dn7
7M7fOyu3hjbs9Ysudsv4zw8txLQlGsYVPZRGN09l6loKDvWuZ6/KoLrMyyBx7Qqw
ruvGwkL4+oFfM0Wo5u6GsMef2cs5eXyq1foNl3xl1wldR/09QwNaVq6I8eUCRvLd
WetkUZ4b6wOCAgUAAoICABqOr6C+Aak7ds0wYxNCNFCjjZo2ytiIXqaevByn2mh7
MZvU0F0N46Vkhi5uEMdpaTVnorXPfe/lw9NE+BQLaIzC835dPdNBCyzjhqknuV9B
ORIRhqDGYG81BHjwbZhx71YcZsdk+9ZxqbihtcR1EpgfEXTwBOKyjzi5yKFy20Pi
HT7kFWuUtBIbzezojDSGgWuuCT5Rr/DWJYMf97R/udrY0E8ARYeTF8yvrLj3JWET
aAPxMRft2L4VFpigGbbfnAhKju145OQuurK/Zo80wr57WD+YFgUv7jfkBHSpdAr3
TivzykYi1dKRZ5ItN+gH8g7OwoEFNpHGiQKLSDdAlN3PiduQNGrl4tHdwh/9c9tE
cwLa70w/M4xp08NHOWehOInKzQd3H/BpTbzXiXXTg80O0unhuoEwh5tituFt2PH1
vRfp/gDgMPrvXtSTaOlr3x6uyWepl6W33Gkr6/mjZ8UJoK5KuALSn/HMFdTiy9Yh
XosHO72sl26CicPHgC4bqjHFH86Wua1m9QTfD5oGEZ23J/XtaxKGZEWEOFsETAFc
hkJQ+daDLnqnwAFgLJCPzxnhNX0EZBnwvjKKFOlZI72fT/Of8hLNUA7tlddSCvhd
8dKFBTo1vXw0kLBib+PWQtfiD7ZRx25UZ4ULnrspSkE6k7Jc2CFqfmxKTCBwpHB8
MAsGCWCGSAFlAwQDAgNJADBGAiEAmCTdOynKKaGd3Kn9moP5gHAA4wrLfBBgH++4
ctr6660CIQCsTWO1mB8ug7Zypq8xQnQt8PpXKskAeOHveFwiUTbdLA==
-----END CERTIFICATE-----
